; Function Attrs: mustprogress nounwind uwtable
define dso_local void @_ZN4node9inspector11InspectorIo27StopAcceptingNewConnectionsEv(ptr nocapture noundef nonnull readonly align 8 dereferenceable(216) %this) local_unnamed_addr #3 align 2 {
entry:
  %agg.tmp = alloca %"class.std::unique_ptr.8", align 8
  %request_queue_ = getelementptr inbounds i8, ptr %this, i64 16
  %0 = load ptr, ptr %request_queue_, align 8
  store ptr null, ptr %agg.tmp, align 8
  call fastcc void @_ZN4node9inspector12RequestQueue4PostEiNS0_12_GLOBAL__N_115TransportActionESt10unique_ptrIN12v8_inspector12StringBufferESt14default_deleteIS6_EE(ptr noundef nonnull align 8 dereferenceable(48) %0, i32 noundef 0, i32 noundef 2, ptr noundef nonnull %agg.tmp)
  %1 = load ptr, ptr %agg.tmp, align 8
  %cmp.not.i = icmp eq ptr %1, null
  br i1 %cmp.not.i, label %_ZNSt10unique_ptrIN12v8_inspector12StringBufferESt14default_deleteIS1_EED2Ev.exit, label %_ZNKSt14default_deleteIN12v8_inspector12StringBufferEEclEPS1_.exit.i

_ZNKSt14default_deleteIN12v8_inspector12StringBufferEEclEPS1_.exit.i: ; preds = %entry
  %vtable.i.i = load ptr, ptr %1, align 8
  %vfn.i.i = getelementptr inbounds i8, ptr %vtable.i.i, i64 8
  %2 = load ptr, ptr %vfn.i.i, align 8
  tail call void %2(ptr noundef nonnull align 8 dereferenceable(8) %1) #18
  br label %_ZNSt10unique_ptrIN12v8_inspector12StringBufferESt14default_deleteIS1_EED2Ev.exit

_ZNSt10unique_ptrIN12v8_inspector12StringBufferESt14default_deleteIS1_EED2Ev.exit: ; preds = %entry, %_ZNKSt14default_deleteIN12v8_inspector12StringBufferEEclEPS1_.exit.i
  ret void
}